target datalayout = "e-m:e-p270:32:32-p271:32:32-p272:64:64-i64:64-i128:128-f80:128-n8:16:32:64-S128"
target triple = "x86_64-pc-linux-gnu"

%struct.reftable_buf = type { i64, i64, ptr }
%struct.string_view = type { ptr, i64 }
%struct.block_iter = type { i32, ptr, i64, i32, %struct.reftable_buf, %struct.reftable_buf }

; Function Attrs: inlinehint nounwind uwtable
define internal void @string_view_consume(ptr noundef %0, i32 noundef %1) #6 {
  %3 = alloca ptr, align 8
  %4 = alloca i32, align 4
  store ptr %0, ptr %3, align 8, !tbaa !39
  store i32 %1, ptr %4, align 4, !tbaa !4
  %5 = load i32, ptr %4, align 4, !tbaa !4
  %6 = load ptr, ptr %3, align 8, !tbaa !39
  %7 = getelementptr inbounds nuw %struct.string_view, ptr %6, i32 0, i32 0
  %8 = load ptr, ptr %7, align 8, !tbaa !34
  %9 = sext i32 %5 to i64
  %10 = getelementptr inbounds i8, ptr %8, i64 %9
  store ptr %10, ptr %7, align 8, !tbaa !34
  %11 = load i32, ptr %4, align 4, !tbaa !4
  %12 = sext i32 %11 to i64
  %13 = load ptr, ptr %3, align 8, !tbaa !39
  %14 = getelementptr inbounds nuw %struct.string_view, ptr %13, i32 0, i32 1
  %15 = load i64, ptr %14, align 8, !tbaa !36
  %16 = sub i64 %15, %12
  store i64 %16, ptr %14, align 8, !tbaa !36
  ret void
}

; Function Attrs: nounwind uwtable
define dso_local i32 @block_iter_next(ptr noundef %0, ptr noundef %1) #0 {
  %3 = alloca i32, align 4
  %4 = alloca ptr, align 8
  %5 = alloca ptr, align 8
  %6 = alloca %struct.string_view, align 8
  %7 = alloca %struct.string_view, align 8
  %8 = alloca i8, align 1
  %9 = alloca i32, align 4
  %10 = alloca i32, align 4
  store ptr %0, ptr %4, align 8, !tbaa !91
  store ptr %1, ptr %5, align 8, !tbaa !30
  call void @llvm.lifetime.start.p0(i64 16, ptr %6) #10
  %11 = getelementptr inbounds nuw %struct.string_view, ptr %6, i32 0, i32 0
  %12 = load ptr, ptr %4, align 8, !tbaa !91
  %13 = getelementptr inbounds nuw %struct.block_iter, ptr %12, i32 0, i32 1
  %14 = load ptr, ptr %13, align 8, !tbaa !93
  %15 = load ptr, ptr %4, align 8, !tbaa !91
  %16 = getelementptr inbounds nuw %struct.block_iter, ptr %15, i32 0, i32 0
  %17 = load i32, ptr %16, align 8, !tbaa !97
  %18 = zext i32 %17 to i64
  %19 = getelementptr inbounds nuw i8, ptr %14, i64 %18
  store ptr %19, ptr %11, align 8, !tbaa !34
  %20 = getelementptr inbounds nuw %struct.string_view, ptr %6, i32 0, i32 1
  %21 = load ptr, ptr %4, align 8, !tbaa !91
  %22 = getelementptr inbounds nuw %struct.block_iter, ptr %21, i32 0, i32 2
  %23 = load i64, ptr %22, align 8, !tbaa !95
  %24 = load ptr, ptr %4, align 8, !tbaa !91
  %25 = getelementptr inbounds nuw %struct.block_iter, ptr %24, i32 0, i32 0
  %26 = load i32, ptr %25, align 8, !tbaa !97
  %27 = zext i32 %26 to i64
  %28 = sub i64 %23, %27
  store i64 %28, ptr %20, align 8, !tbaa !36
  call void @llvm.lifetime.start.p0(i64 16, ptr %7) #10
  call void @llvm.memcpy.p0.p0.i64(ptr align 8 %7, ptr align 8 %6, i64 16, i1 false), !tbaa.struct !37
  call void @llvm.lifetime.start.p0(i64 1, ptr %8) #10
  store i8 0, ptr %8, align 1, !tbaa !11
  call void @llvm.lifetime.start.p0(i64 4, ptr %9) #10
  store i32 0, ptr %9, align 4, !tbaa !4
  %29 = load ptr, ptr %4, align 8, !tbaa !91
  %30 = getelementptr inbounds nuw %struct.block_iter, ptr %29, i32 0, i32 0
  %31 = load i32, ptr %30, align 8, !tbaa !97
  %32 = zext i32 %31 to i64
  %33 = load ptr, ptr %4, align 8, !tbaa !91
  %34 = getelementptr inbounds nuw %struct.block_iter, ptr %33, i32 0, i32 2
  %35 = load i64, ptr %34, align 8, !tbaa !95
  %36 = icmp uge i64 %32, %35
  br i1 %36, label %37, label %38

37:                                               ; preds = %2
  store i32 1, ptr %3, align 4
  store i32 1, ptr %10, align 4
  br label %88

38:                                               ; preds = %2
  %39 = load ptr, ptr %4, align 8, !tbaa !91
  %40 = getelementptr inbounds nuw %struct.block_iter, ptr %39, i32 0, i32 4
  %41 = getelementptr inbounds nuw { ptr, i64 }, ptr %6, i32 0, i32 0
  %42 = load ptr, ptr %41, align 8
  %43 = getelementptr inbounds nuw { ptr, i64 }, ptr %6, i32 0, i32 1
  %44 = load i64, ptr %43, align 8
  %45 = call i32 @reftable_decode_key(ptr noundef %40, ptr noundef %8, ptr %42, i64 %44)
  store i32 %45, ptr %9, align 4, !tbaa !4
  %46 = load i32, ptr %9, align 4, !tbaa !4
  %47 = icmp slt i32 %46, 0
  br i1 %47, label %48, label %49

48:                                               ; preds = %38
  store i32 -1, ptr %3, align 4
  store i32 1, ptr %10, align 4
  br label %88

49:                                               ; preds = %38
  %50 = load ptr, ptr %4, align 8, !tbaa !91
  %51 = getelementptr inbounds nuw %struct.block_iter, ptr %50, i32 0, i32 4
  %52 = getelementptr inbounds nuw %struct.reftable_buf, ptr %51, i32 0, i32 1
  %53 = load i64, ptr %52, align 8, !tbaa !98
  %54 = icmp ne i64 %53, 0
  br i1 %54, label %56, label %55

55:                                               ; preds = %49
  store i32 -3, ptr %3, align 4
  store i32 1, ptr %10, align 4
  br label %88

56:                                               ; preds = %49
  %57 = load i32, ptr %9, align 4, !tbaa !4
  call void @string_view_consume(ptr noundef %6, i32 noundef %57)
  %58 = load ptr, ptr %5, align 8, !tbaa !30
  %59 = load ptr, ptr %4, align 8, !tbaa !91
  %60 = getelementptr inbounds nuw %struct.block_iter, ptr %59, i32 0, i32 4
  %61 = load i8, ptr %8, align 1, !tbaa !11
  %62 = load ptr, ptr %4, align 8, !tbaa !91
  %63 = getelementptr inbounds nuw %struct.block_iter, ptr %62, i32 0, i32 3
  %64 = load i32, ptr %63, align 8, !tbaa !96
  %65 = load ptr, ptr %4, align 8, !tbaa !91
  %66 = getelementptr inbounds nuw %struct.block_iter, ptr %65, i32 0, i32 5
  %67 = getelementptr inbounds nuw { ptr, i64 }, ptr %6, i32 0, i32 0
  %68 = load ptr, ptr %67, align 8
  %69 = getelementptr inbounds nuw { ptr, i64 }, ptr %6, i32 0, i32 1
  %70 = load i64, ptr %69, align 8
  %71 = call i32 @reftable_record_decode(ptr noundef %58, ptr noundef byval(%struct.reftable_buf) align 8 %60, i8 noundef zeroext %61, ptr %68, i64 %70, i32 noundef %64, ptr noundef %66)
  store i32 %71, ptr %9, align 4, !tbaa !4
  %72 = load i32, ptr %9, align 4, !tbaa !4
  %73 = icmp slt i32 %72, 0
  br i1 %73, label %74, label %75

74:                                               ; preds = %56
  store i32 -1, ptr %3, align 4
  store i32 1, ptr %10, align 4
  br label %88

75:                                               ; preds = %56
  %76 = load i32, ptr %9, align 4, !tbaa !4
  call void @string_view_consume(ptr noundef %6, i32 noundef %76)
  %77 = getelementptr inbounds nuw %struct.string_view, ptr %7, i32 0, i32 1
  %78 = load i64, ptr %77, align 8, !tbaa !36
  %79 = getelementptr inbounds nuw %struct.string_view, ptr %6, i32 0, i32 1
  %80 = load i64, ptr %79, align 8, !tbaa !36
  %81 = sub i64 %78, %80
  %82 = load ptr, ptr %4, align 8, !tbaa !91
  %83 = getelementptr inbounds nuw %struct.block_iter, ptr %82, i32 0, i32 0
  %84 = load i32, ptr %83, align 8, !tbaa !97
  %85 = zext i32 %84 to i64
  %86 = add i64 %85, %81
  %87 = trunc i64 %86 to i32
  store i32 %87, ptr %83, align 8, !tbaa !97
  store i32 0, ptr %3, align 4
  store i32 1, ptr %10, align 4
  br label %88

88:                                               ; preds = %75, %74, %55, %48, %37
  call void @llvm.lifetime.end.p0(i64 4, ptr %9) #10
  call void @llvm.lifetime.end.p0(i64 1, ptr %8) #10
  call void @llvm.lifetime.end.p0(i64 16, ptr %7) #10
  call void @llvm.lifetime.end.p0(i64 16, ptr %6) #10
  %89 = load i32, ptr %3, align 4
  ret i32 %89
}