; Function Attrs: nounwind uwtable
define dso_local range(i32 -3, 2) i32 @block_iter_next(ptr noundef %0, ptr noundef %1) local_unnamed_addr #2 {
  %3 = alloca i8, align 1
  %4 = getelementptr inbounds nuw i8, ptr %0, i64 8
  %5 = load ptr, ptr %4, align 8, !tbaa !67
  %6 = load i32, ptr %0, align 8, !tbaa !71
  %7 = zext i32 %6 to i64
  %8 = getelementptr inbounds nuw i8, ptr %5, i64 %7
  %9 = getelementptr inbounds nuw i8, ptr %0, i64 16
  %10 = load i64, ptr %9, align 8, !tbaa !69
  %11 = sub i64 %10, %7
  call void @llvm.lifetime.start.p0(i64 1, ptr nonnull %3) #11
  store i8 0, ptr %3, align 1, !tbaa !19
  %.not = icmp ugt i64 %10, %7
  br i1 %.not, label %12, label %32

12:                                               ; preds = %2
  %13 = getelementptr inbounds nuw i8, ptr %0, i64 32
  %14 = call i32 @reftable_decode_key(ptr noundef nonnull %13, ptr noundef nonnull %3, ptr %8, i64 %11) #11
  %15 = icmp slt i32 %14, 0
  br i1 %15, label %32, label %16

16:                                               ; preds = %12
  %17 = getelementptr inbounds nuw i8, ptr %0, i64 40
  %18 = load i64, ptr %17, align 8, !tbaa !72
  %.not19 = icmp eq i64 %18, 0
  br i1 %.not19, label %32, label %19

19:                                               ; preds = %16
  %20 = zext nneg i32 %14 to i64
  %21 = getelementptr inbounds nuw i8, ptr %8, i64 %20
  %22 = sub i64 %11, %20
  %23 = load i8, ptr %3, align 1, !tbaa !19
  %24 = getelementptr inbounds nuw i8, ptr %0, i64 24
  %25 = load i32, ptr %24, align 8, !tbaa !70
  %26 = getelementptr inbounds nuw i8, ptr %0, i64 56
  %27 = call i32 @reftable_record_decode(ptr noundef %1, ptr noundef nonnull byval(%struct.reftable_buf) align 8 %13, i8 noundef zeroext %23, ptr %21, i64 %22, i32 noundef %25, ptr noundef nonnull %26) #11
  %28 = icmp slt i32 %27, 0
  br i1 %28, label %32, label %29

29:                                               ; preds = %19
  %narrow = add nuw i32 %14, %27
  %30 = load i32, ptr %0, align 8, !tbaa !71
  %31 = add i32 %30, %narrow
  store i32 %31, ptr %0, align 8, !tbaa !71
  br label %32

32:                                               ; preds = %19, %16, %12, %2, %29
  %.0 = phi i32 [ 0, %29 ], [ 1, %2 ], [ -1, %12 ], [ -3, %16 ], [ -1, %19 ]
  call void @llvm.lifetime.end.p0(i64 1, ptr nonnull %3) #11
  ret i32 %.0
}